target datalayout = "e-m:e-p270:32:32-p271:32:32-p272:64:64-i64:64-i128:128-f80:128-n8:16:32:64-S128"
target triple = "x86_64-pc-linux-gnu"

%struct.opj_stream_private = type { ptr, ptr, i64, ptr, ptr, ptr, ptr, ptr, ptr, ptr, ptr, i64, i64, i64, i32 }

; Function Attrs: nounwind uwtable
define hidden i64 @opj_stream_get_number_byte_left(ptr noundef %0) #0 {
  %2 = alloca ptr, align 8
  store ptr %0, ptr %2, align 8, !tbaa !30
  %3 = load ptr, ptr %2, align 8, !tbaa !30
  %4 = getelementptr inbounds nuw %struct.opj_stream_private, ptr %3, i32 0, i32 2
  %5 = load i64, ptr %4, align 8, !tbaa !47
  %6 = icmp ne i64 %5, 0
  br i1 %6, label %7, label %15

7:                                                ; preds = %1
  %8 = load ptr, ptr %2, align 8, !tbaa !30
  %9 = getelementptr inbounds nuw %struct.opj_stream_private, ptr %8, i32 0, i32 2
  %10 = load i64, ptr %9, align 8, !tbaa !47
  %11 = load ptr, ptr %2, align 8, !tbaa !30
  %12 = getelementptr inbounds nuw %struct.opj_stream_private, ptr %11, i32 0, i32 12
  %13 = load i64, ptr %12, align 8, !tbaa !46
  %14 = sub nsw i64 %10, %13
  br label %16

15:                                               ; preds = %1
  br label %16

16:                                               ; preds = %15, %7
  %17 = phi i64 [ %14, %7 ], [ 0, %15 ]
  ret i64 %17
}