; Function Attrs: mustprogress nofree norecurse nosync nounwind willreturn memory(argmem: read) uwtable
define hidden i64 @opj_stream_get_number_byte_left(ptr noundef readonly captures(none) %0) local_unnamed_addr #8 {
  %2 = getelementptr inbounds nuw i8, ptr %0, i64 16
  %3 = load i64, ptr %2, align 8, !tbaa !35
  %.not = icmp eq i64 %3, 0
  br i1 %.not, label %8, label %4

4:                                                ; preds = %1
  %5 = getelementptr inbounds nuw i8, ptr %0, i64 96
  %6 = load i64, ptr %5, align 8, !tbaa !34
  %7 = sub nsw i64 %3, %6
  br label %8

8:                                                ; preds = %1, %4
  %9 = phi i64 [ %7, %4 ], [ 0, %1 ]
  ret i64 %9
}